; ModuleID = '36/1326.c'
source_filename = "36/1326.c"
target datalayout = "e-m:e-p270:32:32-p271:32:32-p272:64:64-i64:64-f80:128-n8:16:32:64-S128"
target triple = "x86_64-pc-linux-gnu"

@.str = private unnamed_addr constant [6 x i8] c"%s %s\00", align 1
@.str.1 = private unnamed_addr constant [3 x i8] c"NO\00", align 1
@.str.2 = private unnamed_addr constant [4 x i8] c"YES\00", align 1

; Function Attrs: noinline nounwind uwtable
define dso_local i32 @main() #0 {
  %1 = alloca i32, align 4
  %2 = alloca [200 x i8], align 16
  %3 = alloca [200 x i8], align 16
  %4 = alloca [100 x i32], align 16
  %5 = alloca [100 x i32], align 16
  %6 = alloca i32, align 4
  %7 = alloca i32, align 4
  %8 = alloca i32, align 4
  %9 = alloca i32, align 4
  %10 = alloca i32, align 4
  store i32 0, i32* %1, align 4
  store i32 0, i32* %10, align 4
  %11 = getelementptr inbounds [200 x i8], [200 x i8]* %2, i64 0, i64 0
  %12 = getelementptr inbounds [200 x i8], [200 x i8]* %3, i64 0, i64 0
  %13 = call i32 (i8*, ...) @__isoc99_scanf(i8* getelementptr inbounds ([6 x i8], [6 x i8]* @.str, i64 0, i64 0), i8* %11, i8* %12)
  %14 = getelementptr inbounds [200 x i8], [200 x i8]* %2, i64 0, i64 0
  %15 = call i64 @strlen(i8* %14) #3
  %16 = trunc i64 %15 to i32
  store i32 %16, i32* %6, align 4
  %17 = getelementptr inbounds [200 x i8], [200 x i8]* %3, i64 0, i64 0
  %18 = call i64 @strlen(i8* %17) #3
  %19 = trunc i64 %18 to i32
  store i32 %19, i32* %7, align 4
  %20 = load i32, i32* %6, align 4
  %21 = load i32, i32* %7, align 4
  %22 = icmp ne i32 %20, %21
  br i1 %22, label %23, label %25

23:                                               ; preds = %0
  %24 = call i32 (i8*, ...) @printf(i8* getelementptr inbounds ([3 x i8], [3 x i8]* @.str.1, i64 0, i64 0))
  br label %25

25:                                               ; preds = %23, %0
  %26 = load i32, i32* %6, align 4
  %27 = load i32, i32* %7, align 4
  %28 = icmp eq i32 %26, %27
  br i1 %28, label %29, label %74

29:                                               ; preds = %25
  store i32 0, i32* %8, align 4
  br label %30

30:                                               ; preds = %62, %29
  %31 = load i32, i32* %8, align 4
  %32 = load i32, i32* %6, align 4
  %33 = icmp slt i32 %31, %32
  br i1 %33, label %34, label %65

34:                                               ; preds = %30
  store i32 0, i32* %9, align 4
  br label %35

35:                                               ; preds = %58, %34
  %36 = load i32, i32* %9, align 4
  %37 = load i32, i32* %6, align 4
  %38 = icmp slt i32 %36, %37
  br i1 %38, label %39, label %61

39:                                               ; preds = %35
  %40 = load i32, i32* %8, align 4
  %41 = sext i32 %40 to i64
  %42 = getelementptr inbounds [200 x i8], [200 x i8]* %2, i64 0, i64 %41
  %43 = load i8, i8* %42, align 1
  %44 = sext i8 %43 to i32
  %45 = load i32, i32* %9, align 4
  %46 = sext i32 %45 to i64
  %47 = getelementptr inbounds [200 x i8], [200 x i8]* %3, i64 0, i64 %46
  %48 = load i8, i8* %47, align 1
  %49 = sext i8 %48 to i32
  %50 = icmp eq i32 %44, %49
  br i1 %50, label %51, label %57

51:                                               ; preds = %39
  %52 = load i32, i32* %9, align 4
  %53 = sext i32 %52 to i64
  %54 = getelementptr inbounds [200 x i8], [200 x i8]* %3, i64 0, i64 %53
  store i8 1, i8* %54, align 1
  %55 = load i32, i32* %10, align 4
  %56 = add nsw i32 %55, 1
  store i32 %56, i32* %10, align 4
  br label %61

57:                                               ; preds = %39
  br label %58

58:                                               ; preds = %57
  %59 = load i32, i32* %9, align 4
  %60 = add nsw i32 %59, 1
  store i32 %60, i32* %9, align 4
  br label %35

61:                                               ; preds = %51, %35
  br label %62

62:                                               ; preds = %61
  %63 = load i32, i32* %8, align 4
  %64 = add nsw i32 %63, 1
  store i32 %64, i32* %8, align 4
  br label %30

65:                                               ; preds = %30
  %66 = load i32, i32* %10, align 4
  %67 = load i32, i32* %6, align 4
  %68 = icmp eq i32 %66, %67
  br i1 %68, label %69, label %71

69:                                               ; preds = %65
  %70 = call i32 (i8*, ...) @printf(i8* getelementptr inbounds ([4 x i8], [4 x i8]* @.str.2, i64 0, i64 0))
  br label %73

71:                                               ; preds = %65
  %72 = call i32 (i8*, ...) @printf(i8* getelementptr inbounds ([3 x i8], [3 x i8]* @.str.1, i64 0, i64 0))
  br label %73

73:                                               ; preds = %71, %69
  br label %74

74:                                               ; preds = %73, %25
  ret i32 0
}

declare dso_local i32 @__isoc99_scanf(i8*, ...) #1

; Function Attrs: nounwind readonly
declare dso_local i64 @strlen(i8*) #2

declare dso_local i32 @printf(i8*, ...) #1


!llvm.module.flags = !{!0}
!llvm.ident = !{!1}

!0 = !{i32 1, !"wchar_size", i32 4}
!1 = !{!"clang version 10.0.0-4ubuntu1 "}
